; Function Attrs: mustprogress uwtable
define void @_ZN7rocksdb17BaseDeltaIterator11AdvanceBaseEv(ptr noundef nonnull readonly align 8 captures(none) dereferenceable(200) %0) local_unnamed_addr #4 align 2 {
  %2 = getelementptr inbounds nuw i8, ptr %0, i64 40
  %3 = load i8, ptr %2, align 8, !tbaa !20, !range !91, !noundef !92
  %4 = trunc nuw i8 %3 to i1
  %5 = getelementptr inbounds nuw i8, ptr %0, i64 72
  %6 = load ptr, ptr %5, align 8, !tbaa !99
  %7 = load ptr, ptr %6, align 8, !tbaa !18
  %. = select i1 %4, i64 56, i64 64
  %8 = getelementptr inbounds nuw i8, ptr %7, i64 %.
  %9 = load ptr, ptr %8, align 8
  tail call void %9(ptr noundef nonnull align 8 dereferenceable(40) %6)
  ret void
}